target datalayout = "e-m:e-p270:32:32-p271:32:32-p272:64:64-i64:64-i128:128-f80:128-n8:16:32:64-S128"
target triple = "x86_64-pc-linux-gnu"

%struct.SDL_Surface = type { i32, i32, i32, i32, i32, ptr, i32, ptr, i32, i32, ptr, i32, ptr, i32, ptr, i32, %struct.SDL_Rect, %struct.SDL_BlitMap }
%struct.SDL_Rect = type { i32, i32, i32, i32 }
%struct.SDL_BlitMap = type { i32, ptr, ptr, %struct.SDL_BlitInfo, i32, i32 }
%struct.SDL_BlitInfo = type { ptr, ptr, i32, i32, i32, i32, ptr, ptr, i32, i32, i32, i32, ptr, ptr, ptr, ptr, ptr, ptr, i32, i32, i8, i8, i8, i8 }
%struct.SDL_PixelFormatDetails = type { i32, i8, i8, [2 x i8], i32, i32, i32, i32, i8, i8, i8, i8, i8, i8, i8, i8 }
%struct.SDL_Point = type { i32, i32 }

@.str = private unnamed_addr constant [26 x i8] c"Parameter '%s' is invalid\00", align 1
@.str.3 = private unnamed_addr constant [23 x i8] c"SDL_BlendPoints(): dst\00", align 1
@.str.4 = private unnamed_addr constant [46 x i8] c"SDL_BlendPoints(): Unsupported surface format\00", align 1

; Function Attrs: nounwind uwtable
define hidden zeroext i1 @SDL_BlendPoints(ptr noundef %0, ptr noundef %1, i32 noundef %2, i32 noundef %3, i8 noundef zeroext %4, i8 noundef zeroext %5, i8 noundef zeroext %6, i8 noundef zeroext %7) #0 {
  %9 = alloca i1, align 1
  %10 = alloca ptr, align 8
  %11 = alloca ptr, align 8
  %12 = alloca i32, align 4
  %13 = alloca i32, align 4
  %14 = alloca i8, align 1
  %15 = alloca i8, align 1
  %16 = alloca i8, align 1
  %17 = alloca i8, align 1
  %18 = alloca i32, align 4
  %19 = alloca i32, align 4
  %20 = alloca i32, align 4
  %21 = alloca i32, align 4
  %22 = alloca i32, align 4
  %23 = alloca i32, align 4
  %24 = alloca i32, align 4
  %25 = alloca ptr, align 8
  %26 = alloca i8, align 1
  %27 = alloca i32, align 4
  store ptr %0, ptr %10, align 8
  store ptr %1, ptr %11, align 8
  store i32 %2, ptr %12, align 4
  store i32 %3, ptr %13, align 4
  store i8 %4, ptr %14, align 1
  store i8 %5, ptr %15, align 1
  store i8 %6, ptr %16, align 1
  store i8 %7, ptr %17, align 1
  call void @llvm.lifetime.start.p0(i64 4, ptr %18) #3
  call void @llvm.lifetime.start.p0(i64 4, ptr %19) #3
  call void @llvm.lifetime.start.p0(i64 4, ptr %20) #3
  call void @llvm.lifetime.start.p0(i64 4, ptr %21) #3
  call void @llvm.lifetime.start.p0(i64 4, ptr %22) #3
  call void @llvm.lifetime.start.p0(i64 4, ptr %23) #3
  call void @llvm.lifetime.start.p0(i64 4, ptr %24) #3
  call void @llvm.lifetime.start.p0(i64 8, ptr %25) #3
  store ptr null, ptr %25, align 8
  call void @llvm.lifetime.start.p0(i64 1, ptr %26) #3
  store i8 1, ptr %26, align 1
  %28 = load ptr, ptr %10, align 8
  %29 = call zeroext i1 @SDL_SurfaceValid(ptr noundef %28)
  br i1 %29, label %32, label %30

30:                                               ; preds = %8
  %31 = call zeroext i1 (ptr, ...) @SDL_SetError_REAL(ptr noundef @.str, ptr noundef @.str.3)
  store i1 %31, ptr %9, align 1
  store i32 1, ptr %27, align 4
  br label %204

32:                                               ; preds = %8
  %33 = load ptr, ptr %10, align 8
  %34 = getelementptr inbounds nuw %struct.SDL_Surface, ptr %33, i32 0, i32 10
  %35 = load ptr, ptr %34, align 8
  %36 = getelementptr inbounds nuw %struct.SDL_PixelFormatDetails, ptr %35, i32 0, i32 1
  %37 = load i8, ptr %36, align 4
  %38 = zext i8 %37 to i32
  %39 = icmp slt i32 %38, 8
  br i1 %39, label %40, label %42

40:                                               ; preds = %32
  %41 = call zeroext i1 (ptr, ...) @SDL_SetError_REAL(ptr noundef @.str.4)
  store i1 %41, ptr %9, align 1
  store i32 1, ptr %27, align 4
  br label %204

42:                                               ; preds = %32
  %43 = load i32, ptr %13, align 4
  %44 = icmp eq i32 %43, 1
  br i1 %44, label %48, label %45

45:                                               ; preds = %42
  %46 = load i32, ptr %13, align 4
  %47 = icmp eq i32 %46, 2
  br i1 %47, label %48, label %70

48:                                               ; preds = %45, %42
  %49 = load i8, ptr %14, align 1
  %50 = zext i8 %49 to i32
  %51 = load i8, ptr %17, align 1
  %52 = zext i8 %51 to i32
  %53 = mul i32 %50, %52
  %54 = udiv i32 %53, 255
  %55 = trunc i32 %54 to i8
  store i8 %55, ptr %14, align 1
  %56 = load i8, ptr %15, align 1
  %57 = zext i8 %56 to i32
  %58 = load i8, ptr %17, align 1
  %59 = zext i8 %58 to i32
  %60 = mul i32 %57, %59
  %61 = udiv i32 %60, 255
  %62 = trunc i32 %61 to i8
  store i8 %62, ptr %15, align 1
  %63 = load i8, ptr %16, align 1
  %64 = zext i8 %63 to i32
  %65 = load i8, ptr %17, align 1
  %66 = zext i8 %65 to i32
  %67 = mul i32 %64, %66
  %68 = udiv i32 %67, 255
  %69 = trunc i32 %68 to i8
  store i8 %69, ptr %16, align 1
  br label %70

70:                                               ; preds = %48, %45
  %71 = load ptr, ptr %10, align 8
  %72 = getelementptr inbounds nuw %struct.SDL_Surface, ptr %71, i32 0, i32 10
  %73 = load ptr, ptr %72, align 8
  %74 = getelementptr inbounds nuw %struct.SDL_PixelFormatDetails, ptr %73, i32 0, i32 1
  %75 = load i8, ptr %74, align 4
  %76 = zext i8 %75 to i32
  switch i32 %76, label %110 [
    i32 15, label %77
    i32 16, label %85
    i32 32, label %93
  ]

77:                                               ; preds = %70
  %78 = load ptr, ptr %10, align 8
  %79 = getelementptr inbounds nuw %struct.SDL_Surface, ptr %78, i32 0, i32 10
  %80 = load ptr, ptr %79, align 8
  %81 = getelementptr inbounds nuw %struct.SDL_PixelFormatDetails, ptr %80, i32 0, i32 4
  %82 = load i32, ptr %81, align 4
  switch i32 %82, label %84 [
    i32 31744, label %83
  ]

83:                                               ; preds = %77
  store ptr @SDL_BlendPoint_RGB555, ptr %25, align 8
  br label %84

84:                                               ; preds = %77, %83
  br label %111

85:                                               ; preds = %70
  %86 = load ptr, ptr %10, align 8
  %87 = getelementptr inbounds nuw %struct.SDL_Surface, ptr %86, i32 0, i32 10
  %88 = load ptr, ptr %87, align 8
  %89 = getelementptr inbounds nuw %struct.SDL_PixelFormatDetails, ptr %88, i32 0, i32 4
  %90 = load i32, ptr %89, align 4
  switch i32 %90, label %92 [
    i32 63488, label %91
  ]

91:                                               ; preds = %85
  store ptr @SDL_BlendPoint_RGB565, ptr %25, align 8
  br label %92

92:                                               ; preds = %85, %91
  br label %111

93:                                               ; preds = %70
  %94 = load ptr, ptr %10, align 8
  %95 = getelementptr inbounds nuw %struct.SDL_Surface, ptr %94, i32 0, i32 10
  %96 = load ptr, ptr %95, align 8
  %97 = getelementptr inbounds nuw %struct.SDL_PixelFormatDetails, ptr %96, i32 0, i32 4
  %98 = load i32, ptr %97, align 4
  switch i32 %98, label %109 [
    i32 16711680, label %99
  ]

99:                                               ; preds = %93
  %100 = load ptr, ptr %10, align 8
  %101 = getelementptr inbounds nuw %struct.SDL_Surface, ptr %100, i32 0, i32 10
  %102 = load ptr, ptr %101, align 8
  %103 = getelementptr inbounds nuw %struct.SDL_PixelFormatDetails, ptr %102, i32 0, i32 7
  %104 = load i32, ptr %103, align 4
  %105 = icmp ne i32 %104, 0
  br i1 %105, label %107, label %106

106:                                              ; preds = %99
  store ptr @SDL_BlendPoint_XRGB8888, ptr %25, align 8
  br label %108

107:                                              ; preds = %99
  store ptr @SDL_BlendPoint_ARGB8888, ptr %25, align 8
  br label %108

108:                                              ; preds = %107, %106
  br label %109

109:                                              ; preds = %93, %108
  br label %111

110:                                              ; preds = %70
  br label %111

111:                                              ; preds = %110, %109, %92, %84
  %112 = load ptr, ptr %25, align 8
  %113 = icmp ne ptr %112, null
  br i1 %113, label %124, label %114

114:                                              ; preds = %111
  %115 = load ptr, ptr %10, align 8
  %116 = getelementptr inbounds nuw %struct.SDL_Surface, ptr %115, i32 0, i32 10
  %117 = load ptr, ptr %116, align 8
  %118 = getelementptr inbounds nuw %struct.SDL_PixelFormatDetails, ptr %117, i32 0, i32 7
  %119 = load i32, ptr %118, align 4
  %120 = icmp ne i32 %119, 0
  br i1 %120, label %122, label %121

121:                                              ; preds = %114
  store ptr @SDL_BlendPoint_RGB, ptr %25, align 8
  br label %123

122:                                              ; preds = %114
  store ptr @SDL_BlendPoint_RGBA, ptr %25, align 8
  br label %123

123:                                              ; preds = %122, %121
  br label %124

124:                                              ; preds = %123, %111
  %125 = load ptr, ptr %10, align 8
  %126 = getelementptr inbounds nuw %struct.SDL_Surface, ptr %125, i32 0, i32 16
  %127 = getelementptr inbounds nuw %struct.SDL_Rect, ptr %126, i32 0, i32 0
  %128 = load i32, ptr %127, align 4
  store i32 %128, ptr %18, align 4
  %129 = load ptr, ptr %10, align 8
  %130 = getelementptr inbounds nuw %struct.SDL_Surface, ptr %129, i32 0, i32 16
  %131 = getelementptr inbounds nuw %struct.SDL_Rect, ptr %130, i32 0, i32 0
  %132 = load i32, ptr %131, align 4
  %133 = load ptr, ptr %10, align 8
  %134 = getelementptr inbounds nuw %struct.SDL_Surface, ptr %133, i32 0, i32 16
  %135 = getelementptr inbounds nuw %struct.SDL_Rect, ptr %134, i32 0, i32 2
  %136 = load i32, ptr %135, align 4
  %137 = add nsw i32 %132, %136
  %138 = sub nsw i32 %137, 1
  store i32 %138, ptr %20, align 4
  %139 = load ptr, ptr %10, align 8
  %140 = getelementptr inbounds nuw %struct.SDL_Surface, ptr %139, i32 0, i32 16
  %141 = getelementptr inbounds nuw %struct.SDL_Rect, ptr %140, i32 0, i32 1
  %142 = load i32, ptr %141, align 4
  store i32 %142, ptr %19, align 4
  %143 = load ptr, ptr %10, align 8
  %144 = getelementptr inbounds nuw %struct.SDL_Surface, ptr %143, i32 0, i32 16
  %145 = getelementptr inbounds nuw %struct.SDL_Rect, ptr %144, i32 0, i32 1
  %146 = load i32, ptr %145, align 4
  %147 = load ptr, ptr %10, align 8
  %148 = getelementptr inbounds nuw %struct.SDL_Surface, ptr %147, i32 0, i32 16
  %149 = getelementptr inbounds nuw %struct.SDL_Rect, ptr %148, i32 0, i32 3
  %150 = load i32, ptr %149, align 4
  %151 = add nsw i32 %146, %150
  %152 = sub nsw i32 %151, 1
  store i32 %152, ptr %21, align 4
  store i32 0, ptr %22, align 4
  br label %153

153:                                              ; preds = %198, %124
  %154 = load i32, ptr %22, align 4
  %155 = load i32, ptr %12, align 4
  %156 = icmp slt i32 %154, %155
  br i1 %156, label %157, label %201

157:                                              ; preds = %153
  %158 = load ptr, ptr %11, align 8
  %159 = load i32, ptr %22, align 4
  %160 = sext i32 %159 to i64
  %161 = getelementptr inbounds %struct.SDL_Point, ptr %158, i64 %160
  %162 = getelementptr inbounds nuw %struct.SDL_Point, ptr %161, i32 0, i32 0
  %163 = load i32, ptr %162, align 4
  store i32 %163, ptr %23, align 4
  %164 = load ptr, ptr %11, align 8
  %165 = load i32, ptr %22, align 4
  %166 = sext i32 %165 to i64
  %167 = getelementptr inbounds %struct.SDL_Point, ptr %164, i64 %166
  %168 = getelementptr inbounds nuw %struct.SDL_Point, ptr %167, i32 0, i32 1
  %169 = load i32, ptr %168, align 4
  store i32 %169, ptr %24, align 4
  %170 = load i32, ptr %23, align 4
  %171 = load i32, ptr %18, align 4
  %172 = icmp slt i32 %170, %171
  br i1 %172, label %185, label %173

173:                                              ; preds = %157
  %174 = load i32, ptr %23, align 4
  %175 = load i32, ptr %20, align 4
  %176 = icmp sgt i32 %174, %175
  br i1 %176, label %185, label %177

177:                                              ; preds = %173
  %178 = load i32, ptr %24, align 4
  %179 = load i32, ptr %19, align 4
  %180 = icmp slt i32 %178, %179
  br i1 %180, label %185, label %181

181:                                              ; preds = %177
  %182 = load i32, ptr %24, align 4
  %183 = load i32, ptr %21, align 4
  %184 = icmp sgt i32 %182, %183
  br i1 %184, label %185, label %186

185:                                              ; preds = %181, %177, %173, %157
  br label %198

186:                                              ; preds = %181
  %187 = load ptr, ptr %25, align 8
  %188 = load ptr, ptr %10, align 8
  %189 = load i32, ptr %23, align 4
  %190 = load i32, ptr %24, align 4
  %191 = load i32, ptr %13, align 4
  %192 = load i8, ptr %14, align 1
  %193 = load i8, ptr %15, align 1
  %194 = load i8, ptr %16, align 1
  %195 = load i8, ptr %17, align 1
  %196 = call zeroext i1 %187(ptr noundef %188, i32 noundef %189, i32 noundef %190, i32 noundef %191, i8 noundef zeroext %192, i8 noundef zeroext %193, i8 noundef zeroext %194, i8 noundef zeroext %195)
  %197 = zext i1 %196 to i8
  store i8 %197, ptr %26, align 1
  br label %198

198:                                              ; preds = %186, %185
  %199 = load i32, ptr %22, align 4
  %200 = add nsw i32 %199, 1
  store i32 %200, ptr %22, align 4
  br label %153, !llvm.loop !3

201:                                              ; preds = %153
  %202 = load i8, ptr %26, align 1, !range !5, !noundef !6
  %203 = trunc i8 %202 to i1
  store i1 %203, ptr %9, align 1
  store i32 1, ptr %27, align 4
  br label %204

204:                                              ; preds = %201, %40, %30
  call void @llvm.lifetime.end.p0(i64 1, ptr %26) #3
  call void @llvm.lifetime.end.p0(i64 8, ptr %25) #3
  call void @llvm.lifetime.end.p0(i64 4, ptr %24) #3
  call void @llvm.lifetime.end.p0(i64 4, ptr %23) #3
  call void @llvm.lifetime.end.p0(i64 4, ptr %22) #3
  call void @llvm.lifetime.end.p0(i64 4, ptr %21) #3
  call void @llvm.lifetime.end.p0(i64 4, ptr %20) #3
  call void @llvm.lifetime.end.p0(i64 4, ptr %19) #3
  call void @llvm.lifetime.end.p0(i64 4, ptr %18) #3
  %205 = load i1, ptr %9, align 1
  ret i1 %205
}