; Function Attrs: nounwind uwtable
define hidden zeroext i1 @SDL_BlendPoints(ptr noundef %0, ptr noundef readonly captures(none) %1, i32 noundef %2, i32 noundef %3, i8 noundef zeroext %4, i8 noundef zeroext %5, i8 noundef zeroext %6, i8 noundef zeroext %7) local_unnamed_addr #0 {
  %9 = tail call zeroext i1 @SDL_SurfaceValid(ptr noundef %0) #4
  br i1 %9, label %12, label %10

10:                                               ; preds = %8
  %11 = tail call zeroext i1 (ptr, ...) @SDL_SetError_REAL(ptr noundef nonnull @.str, ptr noundef nonnull @.str.3) #4
  br label %.loopexit

12:                                               ; preds = %8
  %13 = getelementptr inbounds nuw i8, ptr %0, i64 56
  %14 = load ptr, ptr %13, align 8
  %15 = getelementptr inbounds nuw i8, ptr %14, i64 4
  %16 = load i8, ptr %15, align 4
  %17 = icmp ult i8 %16, 8
  br i1 %17, label %18, label %20

18:                                               ; preds = %12
  %19 = tail call zeroext i1 (ptr, ...) @SDL_SetError_REAL(ptr noundef nonnull @.str.4) #4
  br label %.loopexit

20:                                               ; preds = %12
  %21 = add i32 %3, -1
  %or.cond = icmp ult i32 %21, 2
  br i1 %or.cond, label %22, label %36

22:                                               ; preds = %20
  %23 = zext i8 %4 to i32
  %24 = zext i8 %7 to i32
  %25 = mul nuw nsw i32 %24, %23
  %.lhs.trunc = trunc nuw i32 %25 to i16
  %26 = udiv i16 %.lhs.trunc, 255
  %27 = trunc nuw i16 %26 to i8
  %28 = zext i8 %5 to i32
  %29 = mul nuw nsw i32 %24, %28
  %.lhs.trunc75 = trunc nuw i32 %29 to i16
  %30 = udiv i16 %.lhs.trunc75, 255
  %31 = trunc nuw i16 %30 to i8
  %32 = zext i8 %6 to i32
  %33 = mul nuw nsw i32 %24, %32
  %.lhs.trunc77 = trunc nuw i32 %33 to i16
  %34 = udiv i16 %.lhs.trunc77, 255
  %35 = trunc nuw i16 %34 to i8
  br label %36

36:                                               ; preds = %20, %22
  %.057 = phi i8 [ %35, %22 ], [ %6, %20 ]
  %.056 = phi i8 [ %31, %22 ], [ %5, %20 ]
  %.054 = phi i8 [ %27, %22 ], [ %4, %20 ]
  switch i8 %16, label %.thread [
    i8 15, label %37
    i8 16, label %45
    i8 32, label %40
  ]

37:                                               ; preds = %36
  %38 = getelementptr inbounds nuw i8, ptr %14, i64 8
  %39 = load i32, ptr %38, align 4
  %cond2.not = icmp eq i32 %39, 31744
  br i1 %cond2.not, label %50, label %.thread

40:                                               ; preds = %36
  %41 = getelementptr inbounds nuw i8, ptr %14, i64 8
  %42 = load i32, ptr %41, align 4
  %cond = icmp eq i32 %42, 16711680
  br i1 %cond, label %.thread72, label %.thread

.thread72:                                        ; preds = %40
  %43 = getelementptr inbounds nuw i8, ptr %14, i64 20
  %44 = load i32, ptr %43, align 4
  %.not = icmp eq i32 %44, 0
  %SDL_BlendPoint_XRGB8888.SDL_BlendPoint_ARGB8888 = select i1 %.not, ptr @SDL_BlendPoint_XRGB8888, ptr @SDL_BlendPoint_ARGB8888
  br label %50

45:                                               ; preds = %36
  %46 = getelementptr inbounds nuw i8, ptr %14, i64 8
  %47 = load i32, ptr %46, align 4
  %cond1.not = icmp eq i32 %47, 63488
  br i1 %cond1.not, label %50, label %.thread

.thread:                                          ; preds = %40, %36, %37, %45
  %48 = getelementptr inbounds nuw i8, ptr %14, i64 20
  %49 = load i32, ptr %48, align 4
  %.not61 = icmp eq i32 %49, 0
  %SDL_BlendPoint_RGB.SDL_BlendPoint_RGBA = select i1 %.not61, ptr @SDL_BlendPoint_RGB, ptr @SDL_BlendPoint_RGBA
  br label %50

50:                                               ; preds = %37, %.thread72, %.thread, %45
  %.152 = phi ptr [ @SDL_BlendPoint_RGB565, %45 ], [ %SDL_BlendPoint_RGB.SDL_BlendPoint_RGBA, %.thread ], [ %SDL_BlendPoint_XRGB8888.SDL_BlendPoint_ARGB8888, %.thread72 ], [ @SDL_BlendPoint_RGB555, %37 ]
  %51 = getelementptr inbounds nuw i8, ptr %0, i64 100
  %52 = load i32, ptr %51, align 4
  %53 = getelementptr inbounds nuw i8, ptr %0, i64 108
  %54 = load i32, ptr %53, align 4
  %55 = add nsw i32 %54, %52
  %56 = getelementptr inbounds nuw i8, ptr %0, i64 104
  %57 = load i32, ptr %56, align 4
  %58 = getelementptr inbounds nuw i8, ptr %0, i64 112
  %59 = load i32, ptr %58, align 4
  %60 = add nsw i32 %59, %57
  %61 = icmp sgt i32 %2, 0
  br i1 %61, label %.lr.ph.preheader, label %.loopexit

.lr.ph.preheader:                                 ; preds = %50
  %wide.trip.count = zext nneg i32 %2 to i64
  br label %.lr.ph

.lr.ph:                                           ; preds = %.lr.ph.preheader, %70
  %indvars.iv = phi i64 [ 0, %.lr.ph.preheader ], [ %indvars.iv.next, %70 ]
  %.086 = phi i1 [ true, %.lr.ph.preheader ], [ %.1, %70 ]
  %62 = getelementptr inbounds nuw %struct.SDL_Point, ptr %1, i64 %indvars.iv
  %63 = load i32, ptr %62, align 4
  %64 = getelementptr inbounds nuw i8, ptr %62, i64 4
  %65 = load i32, ptr %64, align 4
  %66 = icmp sge i32 %63, %52
  %.not62 = icmp slt i32 %63, %55
  %or.cond67.not80.not84 = select i1 %66, i1 %.not62, i1 false
  %67 = icmp sge i32 %65, %57
  %or.cond68.not82 = select i1 %or.cond67.not80.not84, i1 %67, i1 false
  %.not63 = icmp slt i32 %65, %60
  %or.cond69 = select i1 %or.cond68.not82, i1 %.not63, i1 false
  br i1 %or.cond69, label %68, label %70

68:                                               ; preds = %.lr.ph
  %69 = tail call zeroext i1 %.152(ptr noundef %0, i32 noundef %63, i32 noundef %65, i32 noundef %3, i8 noundef zeroext %.054, i8 noundef zeroext %.056, i8 noundef zeroext %.057, i8 noundef zeroext %7) #4
  br label %70

70:                                               ; preds = %.lr.ph, %68
  %.1 = phi i1 [ %.086, %.lr.ph ], [ %69, %68 ]
  %indvars.iv.next = add nuw nsw i64 %indvars.iv, 1
  %exitcond.not = icmp eq i64 %indvars.iv.next, %wide.trip.count
  br i1 %exitcond.not, label %.loopexit, label %.lr.ph, !llvm.loop !3

.loopexit:                                        ; preds = %70, %50, %18, %10
  %.053 = phi i1 [ %19, %18 ], [ %11, %10 ], [ true, %50 ], [ %.1, %70 ]
  ret i1 %.053
}